target datalayout = "e-m:e-p270:32:32-p271:32:32-p272:64:64-i64:64-i128:128-f80:128-n8:16:32:64-S128"
target triple = "x86_64-pc-linux-gnu"

%"class.sat::ddfw" = type <{ %"struct.sat::ddfw::config", %class.reslimit, %class.vector.1, %class.svector.2, %class.svector.4, %class.svector.6, %class.svector.6, %class.svector.8, i32, [4 x i8], %class.vector.10, %class.svector.11, %class.svector.11, i32, i32, i32, [4 x i8], %class.indexed_uint_set, %class.indexed_uint_set, %class.random_gen, [4 x i8], i64, i32, i32, i32, i32, i64, i64, i64, i64, i64, i32, i32, %class.u_map, %class.stopwatch, %class.svector.11, i8, [7 x i8], %class.scoped_ptr, %"class.std::function", i32, [4 x i8], %class.tracked_uint_set, %class.svector.11, i8, i8, [6 x i8] }>
%"struct.sat::ddfw::config" = type { i32, i32, i32, i32, i32, i32, double }
%class.reslimit = type { %"struct.std::atomic", i8, i64, i64, %class.svector, %class.ptr_vector }
%"struct.std::atomic" = type { %"struct.std::__atomic_base" }
%"struct.std::__atomic_base" = type { i32 }
%class.svector = type { %class.vector }
%class.vector = type { ptr }
%class.ptr_vector = type { %class.vector.0 }
%class.vector.0 = type { ptr }
%class.vector.1 = type { ptr }
%class.svector.2 = type { %class.vector.3 }
%class.vector.3 = type { ptr }
%class.svector.4 = type { %class.vector.5 }
%class.vector.5 = type { ptr }
%class.svector.6 = type { %class.vector.7 }
%class.vector.7 = type { ptr }
%class.svector.8 = type { %class.vector.9 }
%class.vector.9 = type { ptr }
%class.vector.10 = type { ptr }
%class.indexed_uint_set = type { i32, %class.svector.11, %class.svector.11 }
%class.random_gen = type { i32 }
%class.u_map = type { %class.map }
%class.map = type { %class.table2map }
%class.table2map = type { %class.core_hashtable }
%class.core_hashtable = type <{ ptr, i32, i32, i32, [4 x i8] }>
%class.stopwatch = type <{ %"class.std::chrono::time_point", %"class.std::chrono::duration", i8, [7 x i8] }>
%"class.std::chrono::time_point" = type { %"class.std::chrono::duration" }
%"class.std::chrono::duration" = type { i64 }
%class.scoped_ptr = type { ptr }
%"class.std::function" = type { %"class.std::_Function_base", ptr }
%"class.std::_Function_base" = type { %"union.std::_Any_data", ptr }
%"union.std::_Any_data" = type { %"union.std::_Nocopy_types" }
%"union.std::_Nocopy_types" = type { { i64, i64 } }
%class.tracked_uint_set = type { %class.svector.13, %class.svector.11 }
%class.svector.13 = type { %class.vector.14 }
%class.vector.14 = type { ptr }
%class.svector.11 = type { %class.vector.12 }
%class.vector.12 = type { ptr }
%"struct.sat::clause_info" = type { double, i32, i32, %class.svector.2 }

; Function Attrs: mustprogress nounwind uwtable
define linkonce_odr hidden noundef i32 @_ZNK6vectorIN3sat11clause_infoELb1EjE4sizeEv(ptr noundef nonnull align 8 dereferenceable(8) %0) #4 comdat align 2 {
  %2 = alloca i32, align 4
  %3 = alloca ptr, align 8
  store ptr %0, ptr %3, align 8, !tbaa !33
  %4 = load ptr, ptr %3, align 8
  %5 = getelementptr inbounds nuw %class.vector.1, ptr %4, i32 0, i32 0
  %6 = load ptr, ptr %5, align 8, !tbaa !166
  %7 = icmp eq ptr %6, null
  br i1 %7, label %8, label %9

8:                                                ; preds = %1
  store i32 0, ptr %2, align 4
  br label %14

9:                                                ; preds = %1
  %10 = getelementptr inbounds nuw %class.vector.1, ptr %4, i32 0, i32 0
  %11 = load ptr, ptr %10, align 8, !tbaa !166
  %12 = getelementptr inbounds i32, ptr %11, i64 -1
  %13 = load i32, ptr %12, align 4, !tbaa !37
  store i32 %13, ptr %2, align 4
  br label %14

14:                                               ; preds = %9, %8
  %15 = load i32, ptr %2, align 4
  ret i32 %15
}

; Function Attrs: mustprogress nounwind uwtable
define linkonce_odr hidden noundef zeroext i1 @_ZNK3sat11clause_info7is_trueEv(ptr noundef nonnull align 8 dereferenceable(24) %0) #4 comdat align 2 {
  %2 = alloca ptr, align 8
  store ptr %0, ptr %2, align 8, !tbaa !115
  %3 = load ptr, ptr %2, align 8
  %4 = getelementptr inbounds nuw %"struct.sat::clause_info", ptr %3, i32 0, i32 2
  %5 = load i32, ptr %4, align 4, !tbaa !157
  %6 = icmp ugt i32 %5, 0
  ret i1 %6
}

; Function Attrs: mustprogress nounwind uwtable
define linkonce_odr hidden noundef ptr @_ZN6vectorIN3sat11clause_infoELb1EjE3endEv(ptr noundef nonnull align 8 dereferenceable(8) %0) #4 comdat align 2 {
  %2 = alloca ptr, align 8
  store ptr %0, ptr %2, align 8, !tbaa !33
  %3 = load ptr, ptr %2, align 8
  %4 = getelementptr inbounds nuw %class.vector.1, ptr %3, i32 0, i32 0
  %5 = load ptr, ptr %4, align 8, !tbaa !166
  %6 = call noundef i32 @_ZNK6vectorIN3sat11clause_infoELb1EjE4sizeEv(ptr noundef nonnull align 8 dereferenceable(8) %3)
  %7 = zext i32 %6 to i64
  %8 = getelementptr inbounds nuw %"struct.sat::clause_info", ptr %5, i64 %7
  ret ptr %8
}

; Function Attrs: mustprogress nounwind uwtable
define linkonce_odr hidden noundef ptr @_ZN6vectorIN3sat11clause_infoELb1EjE5beginEv(ptr noundef nonnull align 8 dereferenceable(8) %0) #4 comdat align 2 {
  %2 = alloca ptr, align 8
  store ptr %0, ptr %2, align 8, !tbaa !33
  %3 = load ptr, ptr %2, align 8
  %4 = getelementptr inbounds nuw %class.vector.1, ptr %3, i32 0, i32 0
  %5 = load ptr, ptr %4, align 8, !tbaa !166
  ret ptr %5
}

; Function Attrs: mustprogress uwtable
define hidden void @_ZN3sat4ddfw17do_reinit_weightsEv(ptr noundef nonnull align 8 dereferenceable(434) %0) #6 align 2 {
  %2 = alloca ptr, align 8
  %3 = alloca ptr, align 8
  %4 = alloca ptr, align 8
  %5 = alloca ptr, align 8
  %6 = alloca ptr, align 8
  %7 = alloca ptr, align 8
  %8 = alloca ptr, align 8
  %9 = alloca ptr, align 8
  %10 = alloca ptr, align 8
  store ptr %0, ptr %2, align 8, !tbaa !3
  %11 = load ptr, ptr %2, align 8
  call void @_ZN3sat4ddfw3logEv(ptr noundef nonnull align 8 dereferenceable(434) %11)
  %12 = getelementptr inbounds nuw %"class.sat::ddfw", ptr %11, i32 0, i32 24
  %13 = load i32, ptr %12, align 8, !tbaa !97
  %14 = urem i32 %13, 2
  %15 = icmp eq i32 %14, 0
  br i1 %15, label %16, label %37

16:                                               ; preds = %1
  call void @llvm.lifetime.start.p0(i64 8, ptr %3) #3
  %17 = getelementptr inbounds nuw %"class.sat::ddfw", ptr %11, i32 0, i32 2
  store ptr %17, ptr %3, align 8, !tbaa !33
  call void @llvm.lifetime.start.p0(i64 8, ptr %4) #3
  %18 = load ptr, ptr %3, align 8, !tbaa !33
  %19 = call noundef ptr @_ZN6vectorIN3sat11clause_infoELb1EjE5beginEv(ptr noundef nonnull align 8 dereferenceable(8) %18)
  store ptr %19, ptr %4, align 8, !tbaa !115
  call void @llvm.lifetime.start.p0(i64 8, ptr %5) #3
  %20 = load ptr, ptr %3, align 8, !tbaa !33
  %21 = call noundef ptr @_ZN6vectorIN3sat11clause_infoELb1EjE3endEv(ptr noundef nonnull align 8 dereferenceable(8) %20)
  store ptr %21, ptr %5, align 8, !tbaa !115
  br label %22

22:                                               ; preds = %33, %16
  %23 = load ptr, ptr %4, align 8, !tbaa !115
  %24 = load ptr, ptr %5, align 8, !tbaa !115
  %25 = icmp ne ptr %23, %24
  br i1 %25, label %27, label %26

26:                                               ; preds = %22
  call void @llvm.lifetime.end.p0(i64 8, ptr %5) #3
  call void @llvm.lifetime.end.p0(i64 8, ptr %4) #3
  call void @llvm.lifetime.end.p0(i64 8, ptr %3) #3
  br label %36

27:                                               ; preds = %22
  call void @llvm.lifetime.start.p0(i64 8, ptr %6) #3
  %28 = load ptr, ptr %4, align 8, !tbaa !115
  store ptr %28, ptr %6, align 8, !tbaa !115
  %29 = load ptr, ptr %6, align 8, !tbaa !115
  %30 = getelementptr inbounds nuw %"struct.sat::clause_info", ptr %29, i32 0, i32 0
  %31 = load double, ptr %30, align 8, !tbaa !116
  %32 = fadd double %31, 1.000000e+00
  store double %32, ptr %30, align 8, !tbaa !116
  call void @llvm.lifetime.end.p0(i64 8, ptr %6) #3
  br label %33

33:                                               ; preds = %27
  %34 = load ptr, ptr %4, align 8, !tbaa !115
  %35 = getelementptr inbounds nuw %"struct.sat::clause_info", ptr %34, i32 1
  store ptr %35, ptr %4, align 8, !tbaa !115
  br label %22

36:                                               ; preds = %26
  br label %72

37:                                               ; preds = %1
  call void @llvm.lifetime.start.p0(i64 8, ptr %7) #3
  %38 = getelementptr inbounds nuw %"class.sat::ddfw", ptr %11, i32 0, i32 2
  store ptr %38, ptr %7, align 8, !tbaa !33
  call void @llvm.lifetime.start.p0(i64 8, ptr %8) #3
  %39 = load ptr, ptr %7, align 8, !tbaa !33
  %40 = call noundef ptr @_ZN6vectorIN3sat11clause_infoELb1EjE5beginEv(ptr noundef nonnull align 8 dereferenceable(8) %39)
  store ptr %40, ptr %8, align 8, !tbaa !115
  call void @llvm.lifetime.start.p0(i64 8, ptr %9) #3
  %41 = load ptr, ptr %7, align 8, !tbaa !33
  %42 = call noundef ptr @_ZN6vectorIN3sat11clause_infoELb1EjE3endEv(ptr noundef nonnull align 8 dereferenceable(8) %41)
  store ptr %42, ptr %9, align 8, !tbaa !115
  br label %43

43:                                               ; preds = %68, %37
  %44 = load ptr, ptr %8, align 8, !tbaa !115
  %45 = load ptr, ptr %9, align 8, !tbaa !115
  %46 = icmp ne ptr %44, %45
  br i1 %46, label %48, label %47

47:                                               ; preds = %43
  call void @llvm.lifetime.end.p0(i64 8, ptr %9) #3
  call void @llvm.lifetime.end.p0(i64 8, ptr %8) #3
  call void @llvm.lifetime.end.p0(i64 8, ptr %7) #3
  br label %71

48:                                               ; preds = %43
  call void @llvm.lifetime.start.p0(i64 8, ptr %10) #3
  %49 = load ptr, ptr %8, align 8, !tbaa !115
  store ptr %49, ptr %10, align 8, !tbaa !115
  %50 = load ptr, ptr %10, align 8, !tbaa !115
  %51 = call noundef zeroext i1 @_ZNK3sat11clause_info7is_trueEv(ptr noundef nonnull align 8 dereferenceable(24) %50)
  br i1 %51, label %52, label %59

52:                                               ; preds = %48
  %53 = getelementptr inbounds nuw %"class.sat::ddfw", ptr %11, i32 0, i32 0
  %54 = getelementptr inbounds nuw %"struct.sat::ddfw::config", ptr %53, i32 0, i32 1
  %55 = load i32, ptr %54, align 4, !tbaa !118
  %56 = uitofp i32 %55 to double
  %57 = load ptr, ptr %10, align 8, !tbaa !115
  %58 = getelementptr inbounds nuw %"struct.sat::clause_info", ptr %57, i32 0, i32 0
  store double %56, ptr %58, align 8, !tbaa !116
  br label %67

59:                                               ; preds = %48
  %60 = getelementptr inbounds nuw %"class.sat::ddfw", ptr %11, i32 0, i32 0
  %61 = getelementptr inbounds nuw %"struct.sat::ddfw::config", ptr %60, i32 0, i32 1
  %62 = load i32, ptr %61, align 4, !tbaa !118
  %63 = add i32 %62, 1
  %64 = uitofp i32 %63 to double
  %65 = load ptr, ptr %10, align 8, !tbaa !115
  %66 = getelementptr inbounds nuw %"struct.sat::clause_info", ptr %65, i32 0, i32 0
  store double %64, ptr %66, align 8, !tbaa !116
  br label %67

67:                                               ; preds = %59, %52
  call void @llvm.lifetime.end.p0(i64 8, ptr %10) #3
  br label %68

68:                                               ; preds = %67
  %69 = load ptr, ptr %8, align 8, !tbaa !115
  %70 = getelementptr inbounds nuw %"struct.sat::clause_info", ptr %69, i32 1
  store ptr %70, ptr %8, align 8, !tbaa !115
  br label %43

71:                                               ; preds = %47
  br label %72

72:                                               ; preds = %71, %36
  call void @_ZN3sat4ddfw16init_clause_dataEv(ptr noundef nonnull align 8 dereferenceable(434) %11)
  %73 = getelementptr inbounds nuw %"class.sat::ddfw", ptr %11, i32 0, i32 24
  %74 = load i32, ptr %73, align 8, !tbaa !97
  %75 = add i32 %74, 1
  store i32 %75, ptr %73, align 8, !tbaa !97
  %76 = getelementptr inbounds nuw %"class.sat::ddfw", ptr %11, i32 0, i32 24
  %77 = load i32, ptr %76, align 8, !tbaa !97
  %78 = getelementptr inbounds nuw %"class.sat::ddfw", ptr %11, i32 0, i32 0
  %79 = getelementptr inbounds nuw %"struct.sat::ddfw::config", ptr %78, i32 0, i32 4
  %80 = load i32, ptr %79, align 8, !tbaa !98
  %81 = mul i32 %77, %80
  %82 = zext i32 %81 to i64
  %83 = getelementptr inbounds nuw %"class.sat::ddfw", ptr %11, i32 0, i32 27
  %84 = load i64, ptr %83, align 8, !tbaa !99
  %85 = add i64 %84, %82
  store i64 %85, ptr %83, align 8, !tbaa !99
  ret void
}