; Function Attrs: mustprogress uwtable
define hidden void @_ZN3sat4ddfw17do_reinit_weightsEv(ptr noundef nonnull align 8 dereferenceable(434) %0) local_unnamed_addr #4 align 2 {
  tail call void @_ZN3sat4ddfw3logEv(ptr noundef nonnull align 8 dereferenceable(434) %0)
  %2 = getelementptr inbounds nuw i8, ptr %0, i64 240
  %3 = load i32, ptr %2, align 8, !tbaa !91
  %4 = and i32 %3, 1
  %5 = icmp eq i32 %4, 0
  %6 = getelementptr inbounds nuw i8, ptr %0, i64 72
  %7 = load ptr, ptr %6, align 8, !tbaa !40
  %8 = icmp eq ptr %7, null
  br i1 %5, label %9, label %17

9:                                                ; preds = %1
  br i1 %8, label %.loopexit, label %_ZN6vectorIN3sat11clause_infoELb1EjE3endEv.exit

_ZN6vectorIN3sat11clause_infoELb1EjE3endEv.exit:  ; preds = %9
  %10 = getelementptr inbounds i8, ptr %7, i64 -4
  %11 = load i32, ptr %10, align 4, !tbaa !26
  %12 = zext i32 %11 to i64
  %13 = getelementptr inbounds nuw %"struct.sat::clause_info", ptr %7, i64 %12
  %.not1825 = icmp eq i32 %11, 0
  br i1 %.not1825, label %.loopexit, label %.lr.ph27

.lr.ph27:                                         ; preds = %_ZN6vectorIN3sat11clause_infoELb1EjE3endEv.exit, %.lr.ph27
  %.026 = phi ptr [ %16, %.lr.ph27 ], [ %7, %_ZN6vectorIN3sat11clause_infoELb1EjE3endEv.exit ]
  %14 = load double, ptr %.026, align 8, !tbaa !99
  %15 = fadd double %14, 1.000000e+00
  store double %15, ptr %.026, align 8, !tbaa !99
  %16 = getelementptr inbounds nuw i8, ptr %.026, i64 24
  %.not18 = icmp eq ptr %16, %13
  br i1 %.not18, label %.loopexit, label %.lr.ph27

17:                                               ; preds = %1
  br i1 %8, label %.loopexit, label %_ZN6vectorIN3sat11clause_infoELb1EjE3endEv.exit20

_ZN6vectorIN3sat11clause_infoELb1EjE3endEv.exit20: ; preds = %17
  %18 = getelementptr inbounds i8, ptr %7, i64 -4
  %19 = load i32, ptr %18, align 4, !tbaa !26
  %20 = zext i32 %19 to i64
  %21 = getelementptr inbounds nuw %"struct.sat::clause_info", ptr %7, i64 %20
  %.not23 = icmp eq i32 %19, 0
  br i1 %.not23, label %.loopexit, label %.lr.ph

.lr.ph:                                           ; preds = %_ZN6vectorIN3sat11clause_infoELb1EjE3endEv.exit20
  %22 = getelementptr inbounds nuw i8, ptr %0, i64 4
  br label %23

23:                                               ; preds = %.lr.ph, %23
  %.01724 = phi ptr [ %7, %.lr.ph ], [ %28, %23 ]
  %24 = getelementptr inbounds nuw i8, ptr %.01724, i64 12
  %25 = load i32, ptr %24, align 4, !tbaa !101
  %.not21 = icmp eq i32 %25, 0
  %26 = load i32, ptr %22, align 4
  %27 = zext i1 %.not21 to i32
  %storemerge.in = add i32 %26, %27
  %storemerge = uitofp i32 %storemerge.in to double
  store double %storemerge, ptr %.01724, align 8, !tbaa !99
  %28 = getelementptr inbounds nuw i8, ptr %.01724, i64 24
  %.not = icmp eq ptr %28, %21
  br i1 %.not, label %.loopexit, label %23

.loopexit:                                        ; preds = %23, %.lr.ph27, %17, %9, %_ZN6vectorIN3sat11clause_infoELb1EjE3endEv.exit20, %_ZN6vectorIN3sat11clause_infoELb1EjE3endEv.exit
  tail call void @_ZN3sat4ddfw16init_clause_dataEv(ptr noundef nonnull align 8 dereferenceable(434) %0)
  %29 = load i32, ptr %2, align 8, !tbaa !91
  %30 = add i32 %29, 1
  store i32 %30, ptr %2, align 8, !tbaa !91
  %31 = getelementptr inbounds nuw i8, ptr %0, i64 16
  %32 = load i32, ptr %31, align 8, !tbaa !92
  %33 = mul i32 %32, %30
  %34 = zext i32 %33 to i64
  %35 = getelementptr inbounds nuw i8, ptr %0, i64 256
  %36 = load i64, ptr %35, align 8, !tbaa !93
  %37 = add i64 %36, %34
  store i64 %37, ptr %35, align 8, !tbaa !93
  ret void
}